; Function Attrs: nounwind uwtable
define void @Abc_NtkMarkFanins_rec(ptr noundef readonly captures(none) %0, i32 noundef %1) local_unnamed_addr #0 {
  %3 = getelementptr i8, ptr %0, i64 20
  %.val = load i32, ptr %3, align 4
  %4 = and i32 %.val, 15
  %.not = icmp eq i32 %4, 7
  br i1 %.not, label %5, label %.critedge

5:                                                ; preds = %2
  %6 = tail call fastcc i32 @Abc_NodeIsTravIdCurrent(ptr noundef nonnull %0)
  %.not12 = icmp eq i32 %6, 0
  br i1 %.not12, label %7, label %.critedge

7:                                                ; preds = %5
  %.val13 = load ptr, ptr %0, align 8, !tbaa !3
  %8 = getelementptr i8, ptr %0, i64 16
  %.val14 = load i32, ptr %8, align 8, !tbaa !13
  %9 = getelementptr inbounds nuw i8, ptr %.val13, i64 216
  %10 = load i32, ptr %9, align 8, !tbaa !14
  %11 = getelementptr inbounds nuw i8, ptr %.val13, i64 224
  %12 = add nsw i32 %.val14, 1
  %13 = getelementptr inbounds nuw i8, ptr %.val13, i64 228
  %14 = load i32, ptr %13, align 4, !tbaa !28
  %.not.i.not.i.i.i = icmp slt i32 %.val14, %14
  br i1 %.not.i.not.i.i.i, label %Abc_NodeSetTravIdCurrent.exit, label %15

15:                                               ; preds = %7
  %16 = load i32, ptr %11, align 8, !tbaa !29
  %17 = shl nsw i32 %16, 1
  %.not.i.i.i = icmp slt i32 %.val14, %17
  %.not.i.i.not.i.i.i = icmp sgt i32 %16, %.val14
  br i1 %.not.i.i.i, label %30, label %18

18:                                               ; preds = %15
  br i1 %.not.i.i.not.i.i.i, label %Vec_IntGrow.exit.i.i.i.i, label %19

19:                                               ; preds = %18
  %20 = getelementptr inbounds nuw i8, ptr %.val13, i64 232
  %21 = load ptr, ptr %20, align 8, !tbaa !30
  %.not9.i.i.i.i.i = icmp eq ptr %21, null
  %22 = sext i32 %12 to i64
  %23 = shl nsw i64 %22, 2
  br i1 %.not9.i.i.i.i.i, label %26, label %24

24:                                               ; preds = %19
  %25 = tail call ptr @realloc(ptr noundef nonnull %21, i64 noundef %23) #14
  br label %28

26:                                               ; preds = %19
  %27 = tail call noalias ptr @malloc(i64 noundef %23) #15
  br label %28

28:                                               ; preds = %26, %24
  %29 = phi ptr [ %25, %24 ], [ %27, %26 ]
  store ptr %29, ptr %20, align 8, !tbaa !30
  br label %Vec_IntGrow.exit.sink.split.i.i.i.i

30:                                               ; preds = %15
  br i1 %.not.i.i.not.i.i.i, label %Vec_IntGrow.exit.i.i.i.i, label %31

31:                                               ; preds = %30
  %32 = getelementptr inbounds nuw i8, ptr %.val13, i64 232
  %33 = load ptr, ptr %32, align 8, !tbaa !30
  %.not9.i21.i.i.i.i = icmp eq ptr %33, null
  %34 = sext i32 %17 to i64
  %35 = shl nsw i64 %34, 2
  br i1 %.not9.i21.i.i.i.i, label %38, label %36

36:                                               ; preds = %31
  %37 = tail call ptr @realloc(ptr noundef nonnull %33, i64 noundef %35) #14
  br label %40

38:                                               ; preds = %31
  %39 = tail call noalias ptr @malloc(i64 noundef %35) #15
  br label %40

40:                                               ; preds = %38, %36
  %41 = phi ptr [ %37, %36 ], [ %39, %38 ]
  store ptr %41, ptr %32, align 8, !tbaa !30
  br label %Vec_IntGrow.exit.sink.split.i.i.i.i

Vec_IntGrow.exit.sink.split.i.i.i.i:              ; preds = %40, %28
  %.sink.i.i.i.i = phi i32 [ %17, %40 ], [ %12, %28 ]
  store i32 %.sink.i.i.i.i, ptr %11, align 8, !tbaa !29
  %.pre.i.i.i = load i32, ptr %13, align 4, !tbaa !28
  br label %Vec_IntGrow.exit.i.i.i.i

Vec_IntGrow.exit.i.i.i.i:                         ; preds = %Vec_IntGrow.exit.sink.split.i.i.i.i, %30, %18
  %42 = phi i32 [ %.pre.i.i.i, %Vec_IntGrow.exit.sink.split.i.i.i.i ], [ %14, %30 ], [ %14, %18 ]
  %.not4.i.i.i = icmp sgt i32 %42, %.val14
  br i1 %.not4.i.i.i, label %._crit_edge.i.i.i.i, label %.lr.ph.i.i.i.i

.lr.ph.i.i.i.i:                                   ; preds = %Vec_IntGrow.exit.i.i.i.i
  %43 = getelementptr inbounds nuw i8, ptr %.val13, i64 232
  %44 = load ptr, ptr %43, align 8, !tbaa !30
  %45 = sext i32 %42 to i64
  %46 = shl nsw i64 %45, 2
  %scevgep.i.i.i.i = getelementptr i8, ptr %44, i64 %46
  %47 = sub i32 %.val14, %42
  %48 = zext i32 %47 to i64
  %49 = shl nuw nsw i64 %48, 2
  %50 = add nuw nsw i64 %49, 4
  tail call void @llvm.memset.p0.i64(ptr noundef nonnull align 4 dereferenceable(1) %scevgep.i.i.i.i, i8 0, i64 %50, i1 false), !tbaa !31
  br label %._crit_edge.i.i.i.i

._crit_edge.i.i.i.i:                              ; preds = %.lr.ph.i.i.i.i, %Vec_IntGrow.exit.i.i.i.i
  store i32 %12, ptr %13, align 4, !tbaa !28
  br label %Abc_NodeSetTravIdCurrent.exit

Abc_NodeSetTravIdCurrent.exit:                    ; preds = %7, %._crit_edge.i.i.i.i
  %51 = getelementptr i8, ptr %.val13, i64 232
  %.val.i.i.i = load ptr, ptr %51, align 8, !tbaa !30
  %52 = sext i32 %.val14 to i64
  %53 = getelementptr inbounds i32, ptr %.val.i.i.i, i64 %52
  store i32 %10, ptr %53, align 4, !tbaa !31
  %.val15 = load i32, ptr %3, align 4
  %54 = lshr i32 %.val15, 12
  %55 = icmp slt i32 %54, %1
  br i1 %55, label %.critedge, label %.preheader

.preheader:                                       ; preds = %Abc_NodeSetTravIdCurrent.exit
  %56 = getelementptr i8, ptr %0, i64 28
  %.val1619 = load i32, ptr %56, align 4, !tbaa !32
  %57 = icmp sgt i32 %.val1619, 0
  br i1 %57, label %.lr.ph, label %.critedge

.lr.ph:                                           ; preds = %.preheader
  %58 = getelementptr i8, ptr %0, i64 32
  br label %59

59:                                               ; preds = %.lr.ph, %59
  %indvars.iv = phi i64 [ 0, %.lr.ph ], [ %indvars.iv.next, %59 ]
  %.val17 = load ptr, ptr %0, align 8, !tbaa !3
  %.val18 = load ptr, ptr %58, align 8, !tbaa !33
  %60 = getelementptr i8, ptr %.val17, i64 32
  %.val17.val = load ptr, ptr %60, align 8, !tbaa !34
  %61 = getelementptr i8, ptr %.val17.val, i64 8
  %.val17.val.val = load ptr, ptr %61, align 8, !tbaa !35
  %62 = getelementptr inbounds nuw i32, ptr %.val18, i64 %indvars.iv
  %63 = load i32, ptr %62, align 4, !tbaa !31
  %64 = sext i32 %63 to i64
  %65 = getelementptr inbounds ptr, ptr %.val17.val.val, i64 %64
  %66 = load ptr, ptr %65, align 8, !tbaa !37
  tail call void @Abc_NtkMarkFanins_rec(ptr noundef %66, i32 noundef %1)
  %indvars.iv.next = add nuw nsw i64 %indvars.iv, 1
  %.val16 = load i32, ptr %56, align 4, !tbaa !32
  %67 = sext i32 %.val16 to i64
  %68 = icmp slt i64 %indvars.iv.next, %67
  br i1 %68, label %59, label %.critedge, !llvm.loop !38

.critedge:                                        ; preds = %59, %.preheader, %Abc_NodeSetTravIdCurrent.exit, %5, %2
  ret void
}